target datalayout = "e-m:e-p270:32:32-p271:32:32-p272:64:64-i64:64-i128:128-f80:128-n8:16:32:64-S128"
target triple = "x86_64-pc-linux-gnu"

%struct.ExpandedRange = type { i64, i64, i8 }
%struct.compare_context = type { ptr, i32 }

; Function Attrs: inlinehint nounwind uwtable
define internal zeroext i1 @DatumGetBool(i64 noundef %0) #3 {
  %2 = alloca i64, align 8
  store i64 %0, ptr %2, align 8
  %3 = load i64, ptr %2, align 8
  %4 = icmp ne i64 %3, 0
  ret i1 %4
}

; Function Attrs: nounwind uwtable
define internal i32 @compare_expanded_ranges(ptr noundef %0, ptr noundef %1, ptr noundef %2) #0 {
  %4 = alloca i32, align 4
  %5 = alloca ptr, align 8
  %6 = alloca ptr, align 8
  %7 = alloca ptr, align 8
  %8 = alloca ptr, align 8
  %9 = alloca ptr, align 8
  %10 = alloca i64, align 8
  %11 = alloca ptr, align 8
  %12 = alloca i32, align 4
  store ptr %0, ptr %5, align 8
  store ptr %1, ptr %6, align 8
  store ptr %2, ptr %7, align 8
  call void @llvm.lifetime.start.p0(i64 8, ptr %8) #8
  %13 = load ptr, ptr %5, align 8
  store ptr %13, ptr %8, align 8
  call void @llvm.lifetime.start.p0(i64 8, ptr %9) #8
  %14 = load ptr, ptr %6, align 8
  store ptr %14, ptr %9, align 8
  call void @llvm.lifetime.start.p0(i64 8, ptr %10) #8
  call void @llvm.lifetime.start.p0(i64 8, ptr %11) #8
  %15 = load ptr, ptr %7, align 8
  store ptr %15, ptr %11, align 8
  %16 = load ptr, ptr %11, align 8
  %17 = getelementptr inbounds nuw %struct.compare_context, ptr %16, i32 0, i32 0
  %18 = load ptr, ptr %17, align 8
  %19 = load ptr, ptr %11, align 8
  %20 = getelementptr inbounds nuw %struct.compare_context, ptr %19, i32 0, i32 1
  %21 = load i32, ptr %20, align 8
  %22 = load ptr, ptr %8, align 8
  %23 = getelementptr inbounds nuw %struct.ExpandedRange, ptr %22, i32 0, i32 0
  %24 = load i64, ptr %23, align 8
  %25 = load ptr, ptr %9, align 8
  %26 = getelementptr inbounds nuw %struct.ExpandedRange, ptr %25, i32 0, i32 0
  %27 = load i64, ptr %26, align 8
  %28 = call i64 @FunctionCall2Coll(ptr noundef %18, i32 noundef %21, i64 noundef %24, i64 noundef %27)
  store i64 %28, ptr %10, align 8
  %29 = load i64, ptr %10, align 8
  %30 = call zeroext i1 @DatumGetBool(i64 noundef %29)
  br i1 %30, label %31, label %32

31:                                               ; preds = %3
  store i32 -1, ptr %4, align 4
  store i32 1, ptr %12, align 4
  br label %84

32:                                               ; preds = %3
  %33 = load ptr, ptr %11, align 8
  %34 = getelementptr inbounds nuw %struct.compare_context, ptr %33, i32 0, i32 0
  %35 = load ptr, ptr %34, align 8
  %36 = load ptr, ptr %11, align 8
  %37 = getelementptr inbounds nuw %struct.compare_context, ptr %36, i32 0, i32 1
  %38 = load i32, ptr %37, align 8
  %39 = load ptr, ptr %9, align 8
  %40 = getelementptr inbounds nuw %struct.ExpandedRange, ptr %39, i32 0, i32 0
  %41 = load i64, ptr %40, align 8
  %42 = load ptr, ptr %8, align 8
  %43 = getelementptr inbounds nuw %struct.ExpandedRange, ptr %42, i32 0, i32 0
  %44 = load i64, ptr %43, align 8
  %45 = call i64 @FunctionCall2Coll(ptr noundef %35, i32 noundef %38, i64 noundef %41, i64 noundef %44)
  store i64 %45, ptr %10, align 8
  %46 = load i64, ptr %10, align 8
  %47 = call zeroext i1 @DatumGetBool(i64 noundef %46)
  br i1 %47, label %48, label %49

48:                                               ; preds = %32
  store i32 1, ptr %4, align 4
  store i32 1, ptr %12, align 4
  br label %84

49:                                               ; preds = %32
  %50 = load ptr, ptr %11, align 8
  %51 = getelementptr inbounds nuw %struct.compare_context, ptr %50, i32 0, i32 0
  %52 = load ptr, ptr %51, align 8
  %53 = load ptr, ptr %11, align 8
  %54 = getelementptr inbounds nuw %struct.compare_context, ptr %53, i32 0, i32 1
  %55 = load i32, ptr %54, align 8
  %56 = load ptr, ptr %8, align 8
  %57 = getelementptr inbounds nuw %struct.ExpandedRange, ptr %56, i32 0, i32 1
  %58 = load i64, ptr %57, align 8
  %59 = load ptr, ptr %9, align 8
  %60 = getelementptr inbounds nuw %struct.ExpandedRange, ptr %59, i32 0, i32 1
  %61 = load i64, ptr %60, align 8
  %62 = call i64 @FunctionCall2Coll(ptr noundef %52, i32 noundef %55, i64 noundef %58, i64 noundef %61)
  store i64 %62, ptr %10, align 8
  %63 = load i64, ptr %10, align 8
  %64 = call zeroext i1 @DatumGetBool(i64 noundef %63)
  br i1 %64, label %65, label %66

65:                                               ; preds = %49
  store i32 -1, ptr %4, align 4
  store i32 1, ptr %12, align 4
  br label %84

66:                                               ; preds = %49
  %67 = load ptr, ptr %11, align 8
  %68 = getelementptr inbounds nuw %struct.compare_context, ptr %67, i32 0, i32 0
  %69 = load ptr, ptr %68, align 8
  %70 = load ptr, ptr %11, align 8
  %71 = getelementptr inbounds nuw %struct.compare_context, ptr %70, i32 0, i32 1
  %72 = load i32, ptr %71, align 8
  %73 = load ptr, ptr %9, align 8
  %74 = getelementptr inbounds nuw %struct.ExpandedRange, ptr %73, i32 0, i32 1
  %75 = load i64, ptr %74, align 8
  %76 = load ptr, ptr %8, align 8
  %77 = getelementptr inbounds nuw %struct.ExpandedRange, ptr %76, i32 0, i32 1
  %78 = load i64, ptr %77, align 8
  %79 = call i64 @FunctionCall2Coll(ptr noundef %69, i32 noundef %72, i64 noundef %75, i64 noundef %78)
  store i64 %79, ptr %10, align 8
  %80 = load i64, ptr %10, align 8
  %81 = call zeroext i1 @DatumGetBool(i64 noundef %80)
  br i1 %81, label %82, label %83

82:                                               ; preds = %66
  store i32 1, ptr %4, align 4
  store i32 1, ptr %12, align 4
  br label %84

83:                                               ; preds = %66
  store i32 0, ptr %4, align 4
  store i32 1, ptr %12, align 4
  br label %84

84:                                               ; preds = %83, %82, %65, %48, %31
  call void @llvm.lifetime.end.p0(i64 8, ptr %11) #8
  call void @llvm.lifetime.end.p0(i64 8, ptr %10) #8
  call void @llvm.lifetime.end.p0(i64 8, ptr %9) #8
  call void @llvm.lifetime.end.p0(i64 8, ptr %8) #8
  %85 = load i32, ptr %4, align 4
  ret i32 %85
}

; Function Attrs: nounwind uwtable
define internal i32 @sort_expanded_ranges(ptr noundef %0, i32 noundef %1, ptr noundef %2, i32 noundef %3) #0 {
  %5 = alloca ptr, align 8
  %6 = alloca i32, align 4
  %7 = alloca ptr, align 8
  %8 = alloca i32, align 4
  %9 = alloca i32, align 4
  %10 = alloca i32, align 4
  %11 = alloca %struct.compare_context, align 8
  store ptr %0, ptr %5, align 8
  store i32 %1, ptr %6, align 4
  store ptr %2, ptr %7, align 8
  store i32 %3, ptr %8, align 4
  call void @llvm.lifetime.start.p0(i64 4, ptr %9) #8
  call void @llvm.lifetime.start.p0(i64 4, ptr %10) #8
  call void @llvm.lifetime.start.p0(i64 16, ptr %11) #8
  %12 = load i32, ptr %6, align 4
  %13 = getelementptr inbounds nuw %struct.compare_context, ptr %11, i32 0, i32 1
  store i32 %12, ptr %13, align 8
  %14 = load ptr, ptr %5, align 8
  %15 = getelementptr inbounds nuw %struct.compare_context, ptr %11, i32 0, i32 0
  store ptr %14, ptr %15, align 8
  %16 = load ptr, ptr %7, align 8
  %17 = load i32, ptr %8, align 4
  %18 = sext i32 %17 to i64
  call void @qsort_arg(ptr noundef %16, i64 noundef %18, i64 noundef 24, ptr noundef @compare_expanded_ranges, ptr noundef %11)
  store i32 1, ptr %9, align 4
  store i32 1, ptr %10, align 4
  br label %19

19:                                               ; preds = %52, %4
  %20 = load i32, ptr %10, align 4
  %21 = load i32, ptr %8, align 4
  %22 = icmp slt i32 %20, %21
  br i1 %22, label %23, label %55

23:                                               ; preds = %19
  %24 = load ptr, ptr %7, align 8
  %25 = load i32, ptr %10, align 4
  %26 = sub i32 %25, 1
  %27 = sext i32 %26 to i64
  %28 = getelementptr inbounds %struct.ExpandedRange, ptr %24, i64 %27
  %29 = load ptr, ptr %7, align 8
  %30 = load i32, ptr %10, align 4
  %31 = sext i32 %30 to i64
  %32 = getelementptr inbounds %struct.ExpandedRange, ptr %29, i64 %31
  %33 = call i32 @compare_expanded_ranges(ptr noundef %28, ptr noundef %32, ptr noundef %11)
  %34 = icmp ne i32 %33, 0
  br i1 %34, label %36, label %35

35:                                               ; preds = %23
  br label %52

36:                                               ; preds = %23
  %37 = load i32, ptr %10, align 4
  %38 = load i32, ptr %9, align 4
  %39 = icmp ne i32 %37, %38
  br i1 %39, label %40, label %49

40:                                               ; preds = %36
  %41 = load ptr, ptr %7, align 8
  %42 = load i32, ptr %9, align 4
  %43 = sext i32 %42 to i64
  %44 = getelementptr inbounds %struct.ExpandedRange, ptr %41, i64 %43
  %45 = load ptr, ptr %7, align 8
  %46 = load i32, ptr %10, align 4
  %47 = sext i32 %46 to i64
  %48 = getelementptr inbounds %struct.ExpandedRange, ptr %45, i64 %47
  call void @llvm.memcpy.p0.p0.i64(ptr align 8 %44, ptr align 8 %48, i64 24, i1 false)
  br label %49

49:                                               ; preds = %40, %36
  %50 = load i32, ptr %9, align 4
  %51 = add i32 %50, 1
  store i32 %51, ptr %9, align 4
  br label %52

52:                                               ; preds = %49, %35
  %53 = load i32, ptr %10, align 4
  %54 = add i32 %53, 1
  store i32 %54, ptr %10, align 4
  br label %19, !llvm.loop !19

55:                                               ; preds = %19
  %56 = load i32, ptr %9, align 4
  call void @llvm.lifetime.end.p0(i64 16, ptr %11) #8
  call void @llvm.lifetime.end.p0(i64 4, ptr %10) #8
  call void @llvm.lifetime.end.p0(i64 4, ptr %9) #8
  ret i32 %56
}