; Function Attrs: nounwind uwtable
define internal fastcc i32 @sort_expanded_ranges(ptr noundef %0, i32 noundef %1, ptr noundef %2, i32 noundef %3) unnamed_addr #0 {
  %5 = alloca %struct.compare_context, align 8
  call void @llvm.lifetime.start.p0(i64 16, ptr nonnull %5) #12
  %6 = getelementptr inbounds nuw i8, ptr %5, i64 8
  store i32 %1, ptr %6, align 8
  store ptr %0, ptr %5, align 8
  %7 = sext i32 %3 to i64
  call void @qsort_arg(ptr noundef %2, i64 noundef %7, i64 noundef 24, ptr noundef nonnull @compare_expanded_ranges, ptr noundef nonnull %5) #12
  %8 = icmp sgt i32 %3, 1
  br i1 %8, label %.lr.ph.preheader, label %._crit_edge

.lr.ph.preheader:                                 ; preds = %4
  %wide.trip.count = zext nneg i32 %3 to i64
  br label %.lr.ph

.lr.ph:                                           ; preds = %.lr.ph.preheader, %42
  %indvars.iv = phi i64 [ 1, %.lr.ph.preheader ], [ %indvars.iv.next, %42 ]
  %.01822 = phi i32 [ 1, %.lr.ph.preheader ], [ %.1, %42 ]
  %9 = getelementptr %struct.ExpandedRange, ptr %2, i64 %indvars.iv
  %10 = getelementptr i8, ptr %9, i64 -24
  %11 = getelementptr inbounds nuw %struct.ExpandedRange, ptr %2, i64 %indvars.iv
  %12 = load ptr, ptr %5, align 8
  %13 = load i32, ptr %6, align 8
  %14 = load i64, ptr %10, align 8
  %15 = load i64, ptr %11, align 8
  %16 = call i64 @FunctionCall2Coll(ptr noundef %12, i32 noundef %13, i64 noundef %14, i64 noundef %15) #12
  %.not.i = icmp eq i64 %16, 0
  br i1 %.not.i, label %17, label %compare_expanded_ranges.exit.thread

17:                                               ; preds = %.lr.ph
  %18 = load ptr, ptr %5, align 8
  %19 = load i32, ptr %6, align 8
  %20 = load i64, ptr %11, align 8
  %21 = load i64, ptr %10, align 8
  %22 = call i64 @FunctionCall2Coll(ptr noundef %18, i32 noundef %19, i64 noundef %20, i64 noundef %21) #12
  %.not23.i = icmp eq i64 %22, 0
  br i1 %.not23.i, label %23, label %compare_expanded_ranges.exit.thread

23:                                               ; preds = %17
  %24 = load ptr, ptr %5, align 8
  %25 = load i32, ptr %6, align 8
  %26 = getelementptr i8, ptr %9, i64 -16
  %27 = load i64, ptr %26, align 8
  %28 = getelementptr inbounds nuw i8, ptr %11, i64 8
  %29 = load i64, ptr %28, align 8
  %30 = call i64 @FunctionCall2Coll(ptr noundef %24, i32 noundef %25, i64 noundef %27, i64 noundef %29) #12
  %.not24.i = icmp eq i64 %30, 0
  br i1 %.not24.i, label %compare_expanded_ranges.exit, label %compare_expanded_ranges.exit.thread

compare_expanded_ranges.exit:                     ; preds = %23
  %31 = load ptr, ptr %5, align 8
  %32 = load i32, ptr %6, align 8
  %33 = load i64, ptr %28, align 8
  %34 = load i64, ptr %26, align 8
  %35 = call i64 @FunctionCall2Coll(ptr noundef %31, i32 noundef %32, i64 noundef %33, i64 noundef %34) #12
  %.not25.i.not = icmp eq i64 %35, 0
  br i1 %.not25.i.not, label %42, label %compare_expanded_ranges.exit.thread

compare_expanded_ranges.exit.thread:              ; preds = %23, %17, %.lr.ph, %compare_expanded_ranges.exit
  %36 = zext i32 %.01822 to i64
  %.not19 = icmp eq i64 %indvars.iv, %36
  br i1 %.not19, label %40, label %37

37:                                               ; preds = %compare_expanded_ranges.exit.thread
  %38 = sext i32 %.01822 to i64
  %39 = getelementptr inbounds %struct.ExpandedRange, ptr %2, i64 %38
  call void @llvm.memcpy.p0.p0.i64(ptr noundef nonnull align 8 dereferenceable(24) %39, ptr noundef nonnull align 8 dereferenceable(24) %11, i64 24, i1 false)
  br label %40

40:                                               ; preds = %37, %compare_expanded_ranges.exit.thread
  %41 = add i32 %.01822, 1
  br label %42

42:                                               ; preds = %compare_expanded_ranges.exit, %40
  %.1 = phi i32 [ %41, %40 ], [ %.01822, %compare_expanded_ranges.exit ]
  %indvars.iv.next = add nuw nsw i64 %indvars.iv, 1
  %exitcond.not = icmp eq i64 %indvars.iv.next, %wide.trip.count
  br i1 %exitcond.not, label %._crit_edge, label %.lr.ph, !llvm.loop !24

._crit_edge:                                      ; preds = %42, %4
  %.018.lcssa = phi i32 [ 1, %4 ], [ %.1, %42 ]
  call void @llvm.lifetime.end.p0(i64 16, ptr nonnull %5) #12
  ret i32 %.018.lcssa
}